target datalayout = "e-m:e-p270:32:32-p271:32:32-p272:64:64-i64:64-i128:128-f80:128-n8:16:32:64-S128"
target triple = "x86_64-pc-linux-gnu"

%struct.Gia_Man_t_ = type { ptr, ptr, i32, i32, i32, i32, ptr, ptr, i32, i32, i32, ptr, ptr, %struct.Vec_Int_t_, %struct.Vec_Int_t_, i32, i32, i32, %struct.Vec_Int_t_, ptr, ptr, ptr, i32, i32, i32, i32, ptr, ptr, ptr, ptr, ptr, i32, i32, ptr, i32, ptr, ptr, ptr, ptr, ptr, ptr, ptr, ptr, ptr, ptr, ptr, ptr, ptr, ptr, ptr, ptr, ptr, ptr, %struct.Vec_Int_t_, %struct.Vec_Int_t_, ptr, ptr, ptr, ptr, ptr, ptr, ptr, ptr, ptr, ptr, ptr, ptr, ptr, ptr, ptr, ptr, ptr, ptr, ptr, ptr, ptr, i32, float, float, ptr, ptr, i32, ptr, ptr, ptr, ptr, ptr, ptr, ptr, ptr, ptr, ptr, ptr, ptr, ptr, ptr, ptr, i64, i64, ptr, ptr, i32, i32, i32, i32, i32, i32, i32, i32, i32, i32, i32, i32, ptr, ptr, ptr, ptr, ptr, ptr, ptr, ptr, i32, i32, i32, ptr, i32, i32, ptr, ptr, ptr, ptr, ptr, ptr, i32, i32, ptr, %struct.Vec_Int_t_, %struct.Vec_Int_t_, %struct.Vec_Int_t_, ptr, ptr, ptr, i32, i32, i32, i32, ptr, ptr, ptr, ptr, ptr }
%struct.Vec_Int_t_ = type { i32, i32, ptr }

@.str.2 = private unnamed_addr constant [71 x i8] c"Split var = %d.  Rounds = %d.  Bytes per node = %d.  Total = %.2f MB.\0A\00", align 1

; Function Attrs: inlinehint nounwind uwtable
define internal i32 @Vec_IntSize(ptr noundef %0) #2 {
  %2 = alloca ptr, align 8
  store ptr %0, ptr %2, align 8, !tbaa !33
  %3 = load ptr, ptr %2, align 8, !tbaa !33
  %4 = getelementptr inbounds nuw %struct.Vec_Int_t_, ptr %3, i32 0, i32 1
  %5 = load i32, ptr %4, align 4, !tbaa !34
  ret i32 %5
}

; Function Attrs: inlinehint nounwind uwtable
define internal i32 @Gia_ManObjNum(ptr noundef %0) #2 {
  %2 = alloca ptr, align 8
  store ptr %0, ptr %2, align 8, !tbaa !3
  %3 = load ptr, ptr %2, align 8, !tbaa !3
  %4 = getelementptr inbounds nuw %struct.Gia_Man_t_, ptr %3, i32 0, i32 4
  %5 = load i32, ptr %4, align 8, !tbaa !41
  ret i32 %5
}

; Function Attrs: inlinehint nounwind uwtable
define internal i32 @Gia_ManCiNum(ptr noundef %0) #2 {
  %2 = alloca ptr, align 8
  store ptr %0, ptr %2, align 8, !tbaa !3
  %3 = load ptr, ptr %2, align 8, !tbaa !3
  %4 = getelementptr inbounds nuw %struct.Gia_Man_t_, ptr %3, i32 0, i32 11
  %5 = load ptr, ptr %4, align 8, !tbaa !12
  %6 = call i32 @Vec_IntSize(ptr noundef %5)
  ret i32 %6
}

; Function Attrs: nounwind uwtable
define i32 @Gia_ManFindDividerVar(ptr noundef %0, i32 noundef %1) #0 {
  %3 = alloca ptr, align 8
  %4 = alloca i32, align 4
  %5 = alloca i32, align 4
  %6 = alloca i32, align 4
  store ptr %0, ptr %3, align 8, !tbaa !3
  store i32 %1, ptr %4, align 4, !tbaa !8
  call void @llvm.lifetime.start.p0(i64 4, ptr %5) #13
  call void @llvm.lifetime.start.p0(i64 4, ptr %6) #13
  store i32 268435456, ptr %6, align 4, !tbaa !8
  store i32 6, ptr %5, align 4, !tbaa !8
  br label %7

7:                                                ; preds = %23, %2
  %8 = load i32, ptr %5, align 4, !tbaa !8
  %9 = load ptr, ptr %3, align 8, !tbaa !3
  %10 = call i32 @Gia_ManCiNum(ptr noundef %9)
  %11 = icmp slt i32 %8, %10
  br i1 %11, label %12, label %26

12:                                               ; preds = %7
  %13 = load i32, ptr %5, align 4, !tbaa !8
  %14 = sub nsw i32 %13, 3
  %15 = shl i32 1, %14
  %16 = load ptr, ptr %3, align 8, !tbaa !3
  %17 = call i32 @Gia_ManObjNum(ptr noundef %16)
  %18 = mul nsw i32 %15, %17
  %19 = load i32, ptr %6, align 4, !tbaa !8
  %20 = icmp sgt i32 %18, %19
  br i1 %20, label %21, label %22

21:                                               ; preds = %12
  br label %26

22:                                               ; preds = %12
  br label %23

23:                                               ; preds = %22
  %24 = load i32, ptr %5, align 4, !tbaa !8
  %25 = add nsw i32 %24, 1
  store i32 %25, ptr %5, align 4, !tbaa !8
  br label %7, !llvm.loop !111

26:                                               ; preds = %21, %7
  %27 = load i32, ptr %5, align 4, !tbaa !8
  %28 = load ptr, ptr %3, align 8, !tbaa !3
  %29 = call i32 @Gia_ManCiNum(ptr noundef %28)
  %30 = icmp eq i32 %27, %29
  br i1 %30, label %31, label %35

31:                                               ; preds = %26
  %32 = load ptr, ptr %3, align 8, !tbaa !3
  %33 = call i32 @Gia_ManCiNum(ptr noundef %32)
  %34 = sub nsw i32 %33, 1
  store i32 %34, ptr %5, align 4, !tbaa !8
  br label %35

35:                                               ; preds = %31, %26
  %36 = load i32, ptr %4, align 4, !tbaa !8
  %37 = icmp ne i32 %36, 0
  br i1 %37, label %38, label %59

38:                                               ; preds = %35
  %39 = load i32, ptr %5, align 4, !tbaa !8
  %40 = load ptr, ptr %3, align 8, !tbaa !3
  %41 = call i32 @Gia_ManCiNum(ptr noundef %40)
  %42 = load i32, ptr %5, align 4, !tbaa !8
  %43 = sub nsw i32 %41, %42
  %44 = shl i32 1, %43
  %45 = load i32, ptr %5, align 4, !tbaa !8
  %46 = sub nsw i32 %45, 3
  %47 = shl i32 1, %46
  %48 = load i32, ptr %5, align 4, !tbaa !8
  %49 = sub nsw i32 %48, 3
  %50 = shl i32 1, %49
  %51 = sitofp i32 %50 to double
  %52 = fmul double 1.000000e+00, %51
  %53 = load ptr, ptr %3, align 8, !tbaa !3
  %54 = call i32 @Gia_ManObjNum(ptr noundef %53)
  %55 = sitofp i32 %54 to double
  %56 = fmul double %52, %55
  %57 = fdiv double %56, 0x4130000000000000
  %58 = call i32 (ptr, ...) @printf(ptr noundef @.str.2, i32 noundef %39, i32 noundef %44, i32 noundef %47, double noundef %57)
  br label %59

59:                                               ; preds = %38, %35
  %60 = load i32, ptr %5, align 4, !tbaa !8
  call void @llvm.lifetime.end.p0(i64 4, ptr %6) #13
  call void @llvm.lifetime.end.p0(i64 4, ptr %5) #13
  ret i32 %60
}