; Function Attrs: nofree nounwind uwtable
define i32 @Gia_ManFindDividerVar(ptr noundef readonly captures(none) %0, i32 noundef %1) local_unnamed_addr #3 {
  %3 = getelementptr i8, ptr %0, i64 64
  %.val18 = load ptr, ptr %3, align 8, !tbaa !3
  %4 = getelementptr i8, ptr %.val18, i64 4
  %.val18.val = load i32, ptr %4, align 4, !tbaa !28
  %5 = icmp sgt i32 %.val18.val, 6
  br i1 %5, label %.lr.ph, label %._crit_edge

.lr.ph:                                           ; preds = %2
  %6 = getelementptr i8, ptr %0, i64 24
  %.val20 = load i32, ptr %6, align 8, !tbaa !38
  br label %7

7:                                                ; preds = %.lr.ph, %11
  %.021 = phi i32 [ 6, %.lr.ph ], [ %12, %11 ]
  %8 = add nsw i32 %.021, -3
  %9 = shl i32 %.val20, %8
  %10 = icmp sgt i32 %9, 268435456
  br i1 %10, label %._crit_edge, label %11

11:                                               ; preds = %7
  %12 = add nuw nsw i32 %.021, 1
  %exitcond.not = icmp eq i32 %12, %.val18.val
  br i1 %exitcond.not, label %._crit_edge, label %7, !llvm.loop !100

._crit_edge:                                      ; preds = %11, %7, %2
  %.0.lcssa = phi i32 [ 6, %2 ], [ %.021, %7 ], [ %.val18.val, %11 ]
  %13 = icmp eq i32 %.0.lcssa, %.val18.val
  %14 = add nsw i32 %.val18.val, -1
  %spec.select = select i1 %13, i32 %14, i32 %.0.lcssa
  %.not = icmp eq i32 %1, 0
  br i1 %.not, label %26, label %15

15:                                               ; preds = %._crit_edge
  %16 = sub nsw i32 %.val18.val, %spec.select
  %17 = shl nuw i32 1, %16
  %18 = add nsw i32 %spec.select, -3
  %19 = shl nuw i32 1, %18
  %20 = sitofp i32 %19 to double
  %21 = getelementptr i8, ptr %0, i64 24
  %.val19 = load i32, ptr %21, align 8, !tbaa !38
  %22 = sitofp i32 %.val19 to double
  %23 = fmul double %20, %22
  %24 = fmul double %23, 0x3EB0000000000000
  %25 = tail call i32 (ptr, ...) @printf(ptr noundef nonnull dereferenceable(1) @.str.2, i32 noundef %spec.select, i32 noundef %17, i32 noundef %19, double noundef %24)
  br label %26

26:                                               ; preds = %15, %._crit_edge
  ret i32 %spec.select
}